; ModuleID = 'bench/opencv/original/zero_copy_stream.ll'
source_filename = "bench/opencv/original/zero_copy_stream.ll"
target datalayout = "e-m:e-p270:32:32-p271:32:32-p272:64:64-i64:64-i128:128-f80:128-n8:16:32:64-S128"
target triple = "x86_64-pc-linux-gnu"

%"class.std::ios_base::Init" = type { i8 }
%"class.google::protobuf::internal::LogMessage" = type { i32, ptr, i32, %"class.std::__cxx11::basic_string" }
%"class.std::__cxx11::basic_string" = type { %"struct.std::__cxx11::basic_string<char>::_Alloc_hider", i64, %union.anon }
%"struct.std::__cxx11::basic_string<char>::_Alloc_hider" = type { ptr }
%union.anon = type { i64, [8 x i8] }
%"class.google::protobuf::internal::LogFinisher" = type { i8 }

$_ZN6google8protobuf2io20ZeroCopyOutputStreamD2Ev = comdat any

$_ZN6google8protobuf2io20ZeroCopyOutputStreamD0Ev = comdat any

$_ZNK6google8protobuf2io20ZeroCopyOutputStream14AllowsAliasingEv = comdat any

@_ZStL8__ioinit = internal global %"class.std::ios_base::Init" zeroinitializer, align 1
@__dso_handle = external hidden global i8
@.str = private unnamed_addr constant [152 x i8] c"generated/home/dtcxzyw/WorkSpace/Projects/compilers/llvm-opt-benchmark/bench/opencv/opencv/3rdparty/protobuf/src/google/protobuf/io/zero_copy_stream.cc\00", align 1
@.str.1 = private unnamed_addr constant [123 x i8] c"This ZeroCopyOutputStream doesn't support aliasing. Reaching here usually means a ZeroCopyOutputStream implementation bug.\00", align 1
@_ZTVN6google8protobuf2io20ZeroCopyOutputStreamE = hidden unnamed_addr constant { [9 x ptr] } { [9 x ptr] [ptr null, ptr @_ZTIN6google8protobuf2io20ZeroCopyOutputStreamE, ptr @_ZN6google8protobuf2io20ZeroCopyOutputStreamD2Ev, ptr @_ZN6google8protobuf2io20ZeroCopyOutputStreamD0Ev, ptr @__cxa_pure_virtual, ptr @__cxa_pure_virtual, ptr @__cxa_pure_virtual, ptr @_ZN6google8protobuf2io20ZeroCopyOutputStream15WriteAliasedRawEPKvi, ptr @_ZNK6google8protobuf2io20ZeroCopyOutputStream14AllowsAliasingEv] }, align 8
@_ZTIN6google8protobuf2io20ZeroCopyOutputStreamE = hidden constant { ptr, ptr } { ptr getelementptr inbounds (ptr, ptr @_ZTVN10__cxxabiv117__class_type_infoE, i64 2), ptr @_ZTSN6google8protobuf2io20ZeroCopyOutputStreamE }, align 8
@_ZTVN10__cxxabiv117__class_type_infoE = external global [0 x ptr]
@_ZTSN6google8protobuf2io20ZeroCopyOutputStreamE = hidden constant [44 x i8] c"N6google8protobuf2io20ZeroCopyOutputStreamE\00", align 1
@llvm.global_ctors = appending global [1 x { i32, ptr, ptr }] [{ i32, ptr, ptr } { i32 65535, ptr @_GLOBAL__sub_I_zero_copy_stream.cc, ptr null }]

declare void @_ZNSt8ios_base4InitC1Ev(ptr noundef nonnull align 1 dereferenceable(1)) unnamed_addr #0

; Function Attrs: nounwind
declare void @_ZNSt8ios_base4InitD1Ev(ptr noundef nonnull align 1 dereferenceable(1)) unnamed_addr #1

; Function Attrs: nofree nounwind
declare i32 @__cxa_atexit(ptr, ptr, ptr) local_unnamed_addr #2

; Function Attrs: mustprogress uwtable
define hidden noundef zeroext i1 @_ZN6google8protobuf2io20ZeroCopyOutputStream15WriteAliasedRawEPKvi(ptr nonnull readnone align 8 captures(none) %0, ptr readnone captures(none) %1, i32 %2) unnamed_addr #3 align 2 personality ptr @__gxx_personality_v0 {
  %4 = alloca %"class.google::protobuf::internal::LogMessage", align 8
  %5 = alloca %"class.google::protobuf::internal::LogFinisher", align 1
  call void @llvm.lifetime.start.p0(i64 56, ptr nonnull %4) #8
  call void @_ZN6google8protobuf8internal10LogMessageC1ENS0_8LogLevelEPKci(ptr noundef nonnull align 8 dereferenceable(56) %4, i32 noundef 3, ptr noundef nonnull @.str, i32 noundef 47)
  %6 = invoke noundef nonnull align 8 dereferenceable(56) ptr @_ZN6google8protobuf8internal10LogMessagelsEPKc(ptr noundef nonnull align 8 dereferenceable(56) %4, ptr noundef nonnull @.str.1)
          to label %7 unwind label %9

7:                                                ; preds = %3
  call void @llvm.lifetime.start.p0(i64 1, ptr nonnull %5) #8
  invoke void @_ZN6google8protobuf8internal11LogFinisheraSERNS1_10LogMessageE(ptr noundef nonnull align 1 dereferenceable(1) %5, ptr noundef nonnull align 8 dereferenceable(56) %6)
          to label %8 unwind label %11

8:                                                ; preds = %7
  call void @llvm.lifetime.end.p0(i64 1, ptr nonnull %5) #8
  call void @_ZN6google8protobuf8internal10LogMessageD1Ev(ptr noundef nonnull align 8 dereferenceable(56) %4) #8
  call void @llvm.lifetime.end.p0(i64 56, ptr nonnull %4) #8
  ret i1 false

9:                                                ; preds = %3
  %10 = landingpad { ptr, i32 }
          cleanup
  br label %13

11:                                               ; preds = %7
  %12 = landingpad { ptr, i32 }
          cleanup
  call void @llvm.lifetime.end.p0(i64 1, ptr nonnull %5) #8
  br label %13

13:                                               ; preds = %11, %9
  %.pn = phi { ptr, i32 } [ %12, %11 ], [ %10, %9 ]
  call void @_ZN6google8protobuf8internal10LogMessageD1Ev(ptr noundef nonnull align 8 dereferenceable(56) %4) #8
  call void @llvm.lifetime.end.p0(i64 56, ptr nonnull %4) #8
  resume { ptr, i32 } %.pn
}

; Function Attrs: mustprogress nocallback nofree nosync nounwind willreturn memory(argmem: readwrite)
declare void @llvm.lifetime.start.p0(i64 immarg, ptr captures(none)) #4

declare void @_ZN6google8protobuf8internal10LogMessageC1ENS0_8LogLevelEPKci(ptr noundef nonnull align 8 dereferenceable(56), i32 noundef, ptr noundef, i32 noundef) unnamed_addr #0

declare noundef nonnull align 8 dereferenceable(56) ptr @_ZN6google8protobuf8internal10LogMessagelsEPKc(ptr noundef nonnull align 8 dereferenceable(56), ptr noundef) local_unnamed_addr #0

declare i32 @__gxx_personality_v0(...)

declare void @_ZN6google8protobuf8internal11LogFinisheraSERNS1_10LogMessageE(ptr noundef nonnull align 1 dereferenceable(1), ptr noundef nonnull align 8 dereferenceable(56)) local_unnamed_addr #0

; Function Attrs: mustprogress nocallback nofree nosync nounwind willreturn memory(argmem: readwrite)
declare void @llvm.lifetime.end.p0(i64 immarg, ptr captures(none)) #4

; Function Attrs: nounwind
declare void @_ZN6google8protobuf8internal10LogMessageD1Ev(ptr noundef nonnull align 8 dereferenceable(56)) unnamed_addr #1

; Function Attrs: mustprogress nounwind uwtable
define linkonce_odr hidden void @_ZN6google8protobuf2io20ZeroCopyOutputStreamD2Ev(ptr noundef nonnull align 8 dereferenceable(8) %0) unnamed_addr #5 comdat align 2 {
  ret void
}

; Function Attrs: mustprogress nounwind uwtable
define linkonce_odr hidden void @_ZN6google8protobuf2io20ZeroCopyOutputStreamD0Ev(ptr noundef nonnull align 8 dereferenceable(8) %0) unnamed_addr #5 comdat align 2 {
  tail call void @llvm.trap() #9
  unreachable
}

declare void @__cxa_pure_virtual() unnamed_addr

; Function Attrs: mustprogress nounwind uwtable
define linkonce_odr hidden noundef zeroext i1 @_ZNK6google8protobuf2io20ZeroCopyOutputStream14AllowsAliasingEv(ptr noundef nonnull align 8 dereferenceable(8) %0) unnamed_addr #5 comdat align 2 {
  ret i1 false
}

; Function Attrs: cold noreturn nounwind memory(inaccessiblemem: write)
declare void @llvm.trap() #6

; Function Attrs: uwtable
define internal void @_GLOBAL__sub_I_zero_copy_stream.cc() #7 section ".text.startup" {
  tail call void @_ZNSt8ios_base4InitC1Ev(ptr noundef nonnull align 1 dereferenceable(1) @_ZStL8__ioinit)
  %1 = tail call i32 @__cxa_atexit(ptr nonnull @_ZNSt8ios_base4InitD1Ev, ptr nonnull @_ZStL8__ioinit, ptr nonnull @__dso_handle) #8
  ret void
}


!llvm.module.flags = !{!0, !1, !2}

!0 = !{i32 1, !"wchar_size", i32 4}
!1 = !{i32 8, !"PIC Level", i32 2}
!2 = !{i32 7, !"uwtable", i32 2}
